target datalayout = "e-m:e-p270:32:32-p271:32:32-p272:64:64-i64:64-i128:128-f80:128-n8:16:32:64-S128"
target triple = "x86_64-pc-linux-gnu"

%"class.icu_77::Package" = type <{ [64 x i8], [64 x i8], ptr, [1024 x i8], i32, i32, i8, i8, i8, i8, i32, i32, [4 x i8], ptr, i32, i32, [100000 x i8], [100000 x i8], i32, [4 x i8], ptr, ptr, i32, i32, i32, i8, [3 x i8] }>
%"struct.icu_77::Item" = type { ptr, ptr, i32, i8, i8 }

; Function Attrs: mustprogress uwtable
define void @_ZN6icu_777Package11extractItemEPKcic(ptr noundef nonnull align 8 dereferenceable(201237) %0, ptr noundef %1, i32 noundef %2, i8 noundef signext %3) #0 align 2 {
  %5 = alloca ptr, align 8
  %6 = alloca ptr, align 8
  %7 = alloca i32, align 4
  %8 = alloca i8, align 1
  store ptr %0, ptr %5, align 8, !tbaa !26
  store ptr %1, ptr %6, align 8, !tbaa !3
  store i32 %2, ptr %7, align 4, !tbaa !8
  store i8 %3, ptr %8, align 1, !tbaa !32
  %9 = load ptr, ptr %5, align 8
  %10 = load ptr, ptr %6, align 8, !tbaa !3
  %11 = getelementptr inbounds nuw %"class.icu_77::Package", ptr %9, i32 0, i32 13
  %12 = load ptr, ptr %11, align 8, !tbaa !39
  %13 = load i32, ptr %7, align 4, !tbaa !8
  %14 = sext i32 %13 to i64
  %15 = getelementptr inbounds %"struct.icu_77::Item", ptr %12, i64 %14
  %16 = getelementptr inbounds nuw %"struct.icu_77::Item", ptr %15, i32 0, i32 0
  %17 = load ptr, ptr %16, align 8, !tbaa !68
  %18 = load i32, ptr %7, align 4, !tbaa !8
  %19 = load i8, ptr %8, align 1, !tbaa !32
  call void @_ZN6icu_777Package11extractItemEPKcS2_ic(ptr noundef nonnull align 8 dereferenceable(201237) %9, ptr noundef %10, ptr noundef %17, i32 noundef %18, i8 noundef signext %19)
  ret void
}

; Function Attrs: mustprogress uwtable
define void @_ZN6icu_777Package12extractItemsEPKcS2_c(ptr noundef nonnull align 8 dereferenceable(201237) %0, ptr noundef %1, ptr noundef %2, i8 noundef signext %3) #0 align 2 {
  %5 = alloca ptr, align 8
  %6 = alloca ptr, align 8
  %7 = alloca ptr, align 8
  %8 = alloca i8, align 1
  %9 = alloca i32, align 4
  store ptr %0, ptr %5, align 8, !tbaa !26
  store ptr %1, ptr %6, align 8, !tbaa !3
  store ptr %2, ptr %7, align 8, !tbaa !3
  store i8 %3, ptr %8, align 1, !tbaa !32
  %10 = load ptr, ptr %5, align 8
  call void @llvm.lifetime.start.p0(i64 4, ptr %9) #13
  %11 = load ptr, ptr %7, align 8, !tbaa !3
  call void @_ZN6icu_777Package9findItemsEPKc(ptr noundef nonnull align 8 dereferenceable(201237) %10, ptr noundef %11)
  br label %12

12:                                               ; preds = %15, %4
  %13 = call noundef i32 @_ZN6icu_777Package12findNextItemEv(ptr noundef nonnull align 8 dereferenceable(201237) %10)
  store i32 %13, ptr %9, align 4, !tbaa !8
  %14 = icmp sge i32 %13, 0
  br i1 %14, label %15, label %19

15:                                               ; preds = %12
  %16 = load ptr, ptr %6, align 8, !tbaa !3
  %17 = load i32, ptr %9, align 4, !tbaa !8
  %18 = load i8, ptr %8, align 1, !tbaa !32
  call void @_ZN6icu_777Package11extractItemEPKcic(ptr noundef nonnull align 8 dereferenceable(201237) %10, ptr noundef %16, i32 noundef %17, i8 noundef signext %18)
  br label %12, !llvm.loop !89

19:                                               ; preds = %12
  call void @llvm.lifetime.end.p0(i64 4, ptr %9) #13
  ret void
}