; Function Attrs: mustprogress uwtable
define void @_ZN6icu_777Package12extractItemsEPKcS2_c(ptr noundef nonnull align 8 captures(none) dereferenceable(201237) %0, ptr noundef %1, ptr noundef %2, i8 noundef signext %3) local_unnamed_addr #13 align 2 {
  tail call void @_ZN6icu_777Package9findItemsEPKc(ptr noundef nonnull align 8 dereferenceable(201237) %0, ptr noundef %2)
  %5 = tail call noundef i32 @_ZN6icu_777Package12findNextItemEv(ptr noundef nonnull align 8 dereferenceable(201237) %0)
  %6 = icmp sgt i32 %5, -1
  br i1 %6, label %.lr.ph, label %._crit_edge

.lr.ph:                                           ; preds = %4
  %7 = getelementptr inbounds nuw i8, ptr %0, i64 1184
  br label %8

8:                                                ; preds = %.lr.ph, %8
  %9 = phi i32 [ %5, %.lr.ph ], [ %14, %8 ]
  %10 = load ptr, ptr %7, align 8, !tbaa !30
  %11 = zext nneg i32 %9 to i64
  %12 = getelementptr inbounds nuw %"struct.icu_77::Item", ptr %10, i64 %11
  %13 = load ptr, ptr %12, align 8, !tbaa !54
  tail call void @_ZN6icu_777Package11extractItemEPKcS2_ic(ptr noundef nonnull readonly align 8 dereferenceable(201237) %0, ptr noundef %1, ptr noundef %13, i32 noundef %9, i8 noundef signext %3)
  %14 = tail call noundef i32 @_ZN6icu_777Package12findNextItemEv(ptr noundef nonnull align 8 dereferenceable(201237) %0)
  %15 = icmp sgt i32 %14, -1
  br i1 %15, label %8, label %._crit_edge, !llvm.loop !78

._crit_edge:                                      ; preds = %8, %4
  ret void
}